target datalayout = "e-m:e-p270:32:32-p271:32:32-p272:64:64-i64:64-i128:128-f80:128-n8:16:32:64-S128"
target triple = "x86_64-pc-linux-gnu"

; Function Attrs: nounwind uwtable
define ptr @dt_util_fix_path(ptr noundef %0) #0 {
  %2 = alloca ptr, align 8
  %3 = alloca ptr, align 8
  %4 = alloca ptr, align 8
  %5 = alloca i64, align 8
  %6 = alloca ptr, align 8
  %7 = alloca i32, align 4
  %8 = alloca ptr, align 8
  %9 = alloca i32, align 4
  store ptr %0, ptr %3, align 8, !tbaa !6
  %10 = load ptr, ptr %3, align 8, !tbaa !6
  %11 = icmp eq ptr %10, null
  br i1 %11, label %17, label %12

12:                                               ; preds = %1
  %13 = load ptr, ptr %3, align 8, !tbaa !6
  %14 = load i8, ptr %13, align 1, !tbaa !18
  %15 = sext i8 %14 to i32
  %16 = icmp eq i32 %15, 0
  br i1 %16, label %17, label %18

17:                                               ; preds = %12, %1
  store ptr null, ptr %2, align 8
  br label %90

18:                                               ; preds = %12
  call void @llvm.lifetime.start.p0(i64 8, ptr %4) #18
  store ptr null, ptr %4, align 8, !tbaa !6
  %19 = load ptr, ptr %3, align 8, !tbaa !6
  %20 = getelementptr inbounds i8, ptr %19, i64 0
  %21 = load i8, ptr %20, align 1, !tbaa !18
  %22 = sext i8 %21 to i32
  %23 = icmp eq i32 %22, 126
  br i1 %23, label %24, label %84

24:                                               ; preds = %18
  call void @llvm.lifetime.start.p0(i64 8, ptr %5) #18
  %25 = load ptr, ptr %3, align 8, !tbaa !6
  %26 = call i64 @strlen(ptr noundef %25) #17
  store i64 %26, ptr %5, align 8, !tbaa !13
  call void @llvm.lifetime.start.p0(i64 8, ptr %6) #18
  store ptr null, ptr %6, align 8, !tbaa !6
  call void @llvm.lifetime.start.p0(i64 4, ptr %7) #18
  store i32 1, ptr %7, align 4, !tbaa !15
  %27 = load i64, ptr %5, align 8, !tbaa !13
  %28 = icmp ugt i64 %27, 1
  br i1 %28, label %29, label %64

29:                                               ; preds = %24
  %30 = load ptr, ptr %3, align 8, !tbaa !6
  %31 = getelementptr inbounds i8, ptr %30, i64 1
  %32 = load i8, ptr %31, align 1, !tbaa !18
  %33 = sext i8 %32 to i32
  %34 = icmp ne i32 %33, 47
  br i1 %34, label %35, label %64

35:                                               ; preds = %29
  br label %36

36:                                               ; preds = %54, %35
  %37 = load ptr, ptr %3, align 8, !tbaa !6
  %38 = load i32, ptr %7, align 4, !tbaa !15
  %39 = sext i32 %38 to i64
  %40 = getelementptr inbounds i8, ptr %37, i64 %39
  %41 = load i8, ptr %40, align 1, !tbaa !18
  %42 = sext i8 %41 to i32
  %43 = icmp ne i32 %42, 0
  br i1 %43, label %44, label %52

44:                                               ; preds = %36
  %45 = load ptr, ptr %3, align 8, !tbaa !6
  %46 = load i32, ptr %7, align 4, !tbaa !15
  %47 = sext i32 %46 to i64
  %48 = getelementptr inbounds i8, ptr %45, i64 %47
  %49 = load i8, ptr %48, align 1, !tbaa !18
  %50 = sext i8 %49 to i32
  %51 = icmp ne i32 %50, 47
  br label %52

52:                                               ; preds = %44, %36
  %53 = phi i1 [ false, %36 ], [ %51, %44 ]
  br i1 %53, label %54, label %57

54:                                               ; preds = %52
  %55 = load i32, ptr %7, align 4, !tbaa !15
  %56 = add nsw i32 %55, 1
  store i32 %56, ptr %7, align 4, !tbaa !15
  br label %36

57:                                               ; preds = %52
  %58 = load ptr, ptr %3, align 8, !tbaa !6
  %59 = getelementptr inbounds i8, ptr %58, i64 1
  %60 = load i32, ptr %7, align 4, !tbaa !15
  %61 = sub nsw i32 %60, 1
  %62 = sext i32 %61 to i64
  %63 = call noalias ptr @g_strndup(ptr noundef %59, i64 noundef %62)
  store ptr %63, ptr %6, align 8, !tbaa !6
  br label %64

64:                                               ; preds = %57, %29, %24
  call void @llvm.lifetime.start.p0(i64 8, ptr %8) #18
  %65 = load ptr, ptr %6, align 8, !tbaa !6
  %66 = call ptr @dt_loc_get_home_dir(ptr noundef %65)
  store ptr %66, ptr %8, align 8, !tbaa !6
  %67 = load ptr, ptr %6, align 8, !tbaa !6
  call void @g_free(ptr noundef %67)
  %68 = load ptr, ptr %8, align 8, !tbaa !6
  %69 = icmp eq ptr %68, null
  br i1 %69, label %70, label %73

70:                                               ; preds = %64
  %71 = load ptr, ptr %3, align 8, !tbaa !6
  %72 = call noalias ptr @g_strdup(ptr noundef %71)
  store ptr %72, ptr %2, align 8
  store i32 1, ptr %9, align 4
  br label %81

73:                                               ; preds = %64
  %74 = load ptr, ptr %8, align 8, !tbaa !6
  %75 = load ptr, ptr %3, align 8, !tbaa !6
  %76 = load i32, ptr %7, align 4, !tbaa !15
  %77 = sext i32 %76 to i64
  %78 = getelementptr inbounds i8, ptr %75, i64 %77
  %79 = call noalias ptr (ptr, ...) @g_build_filename(ptr noundef %74, ptr noundef %78, ptr noundef null)
  store ptr %79, ptr %4, align 8, !tbaa !6
  %80 = load ptr, ptr %8, align 8, !tbaa !6
  call void @g_free(ptr noundef %80)
  store i32 0, ptr %9, align 4
  br label %81

81:                                               ; preds = %73, %70
  call void @llvm.lifetime.end.p0(i64 8, ptr %8) #18
  call void @llvm.lifetime.end.p0(i64 4, ptr %7) #18
  call void @llvm.lifetime.end.p0(i64 8, ptr %6) #18
  call void @llvm.lifetime.end.p0(i64 8, ptr %5) #18
  %82 = load i32, ptr %9, align 4
  switch i32 %82, label %89 [
    i32 0, label %83
  ]

83:                                               ; preds = %81
  br label %87

84:                                               ; preds = %18
  %85 = load ptr, ptr %3, align 8, !tbaa !6
  %86 = call noalias ptr @g_strdup(ptr noundef %85)
  store ptr %86, ptr %4, align 8, !tbaa !6
  br label %87

87:                                               ; preds = %84, %83
  %88 = load ptr, ptr %4, align 8, !tbaa !6
  store ptr %88, ptr %2, align 8
  store i32 1, ptr %9, align 4
  br label %89

89:                                               ; preds = %87, %81
  call void @llvm.lifetime.end.p0(i64 8, ptr %4) #18
  br label %90

90:                                               ; preds = %89, %17
  %91 = load ptr, ptr %2, align 8
  ret ptr %91
}