; Function Attrs: nounwind uwtable
define noalias ptr @dt_util_fix_path(ptr noundef %0) local_unnamed_addr #0 {
  %2 = icmp eq ptr %0, null
  br i1 %2, label %25, label %3

3:                                                ; preds = %1
  %4 = load i8, ptr %0, align 1, !tbaa !11
  switch i8 %4, label %23 [
    i8 0, label %25
    i8 126, label %5
  ]

5:                                                ; preds = %3
  %6 = tail call i64 @strlen(ptr noundef nonnull dereferenceable(1) %0) #26
  %7 = icmp ugt i64 %6, 1
  br i1 %7, label %8, label %16

8:                                                ; preds = %5
  %9 = getelementptr inbounds nuw i8, ptr %0, i64 1
  %10 = load i8, ptr %9, align 1, !tbaa !11
  %.not = icmp eq i8 %10, 47
  br i1 %.not, label %16, label %.preheader

.preheader:                                       ; preds = %8, %12
  %11 = phi i8 [ %.pre, %12 ], [ %10, %8 ]
  %indvars.iv = phi i64 [ %indvars.iv.next, %12 ], [ 1, %8 ]
  switch i8 %11, label %12 [
    i8 0, label %.critedge
    i8 47, label %.critedge
  ]

12:                                               ; preds = %.preheader
  %indvars.iv.next = add nuw nsw i64 %indvars.iv, 1
  %.phi.trans.insert = getelementptr inbounds nuw i8, ptr %0, i64 %indvars.iv.next
  %.pre = load i8, ptr %.phi.trans.insert, align 1, !tbaa !11
  br label %.preheader

.critedge:                                        ; preds = %.preheader, %.preheader
  %13 = shl i64 %indvars.iv, 32
  %sext = add i64 %13, -4294967296
  %14 = ashr exact i64 %sext, 32
  %15 = tail call noalias ptr @g_strndup(ptr noundef nonnull %9, i64 noundef %14) #27
  br label %16

16:                                               ; preds = %.critedge, %8, %5
  %.027 = phi ptr [ %15, %.critedge ], [ null, %8 ], [ null, %5 ]
  %.025 = phi i64 [ %indvars.iv, %.critedge ], [ 1, %8 ], [ 1, %5 ]
  %17 = tail call ptr @dt_loc_get_home_dir(ptr noundef %.027) #27
  tail call void @g_free(ptr noundef %.027) #27
  %.not36 = icmp eq ptr %17, null
  br i1 %.not36, label %18, label %20

18:                                               ; preds = %16
  %19 = tail call noalias ptr @g_strdup(ptr noundef nonnull %0) #27
  br label %25

20:                                               ; preds = %16
  %21 = getelementptr inbounds nuw i8, ptr %0, i64 %.025
  %22 = tail call noalias ptr (ptr, ...) @g_build_filename(ptr noundef nonnull %17, ptr noundef nonnull %21, ptr noundef null) #27
  tail call void @g_free(ptr noundef nonnull %17) #27
  br label %25

23:                                               ; preds = %3
  %24 = tail call noalias ptr @g_strdup(ptr noundef nonnull %0) #27
  br label %25

25:                                               ; preds = %18, %20, %23, %3, %1
  %.024 = phi ptr [ null, %3 ], [ null, %1 ], [ %24, %23 ], [ %19, %18 ], [ %22, %20 ]
  ret ptr %.024
}